target datalayout = "e-m:e-p270:32:32-p271:32:32-p272:64:64-i64:64-i128:128-f80:128-n8:16:32:64-S128"
target triple = "x86_64-pc-linux-gnu"

%struct.lua_State = type { ptr, i8, i8, i8, i8, i16, %union.StkIdRel, ptr, ptr, %union.StkIdRel, %union.StkIdRel, ptr, %union.StkIdRel, ptr, ptr, ptr, %struct.CallInfo, ptr, i64, i32, i32, i32, i32, i32, %struct.anon.3 }
%union.StkIdRel = type { ptr }
%struct.CallInfo = type { %union.StkIdRel, %union.StkIdRel, ptr, ptr, %union.anon, %union.anon.2, i32 }
%union.anon = type { %struct.anon.1 }
%struct.anon.1 = type { ptr, i64, i64 }
%union.anon.2 = type { i32 }
%struct.anon.3 = type { i32, i32 }
%struct.lua_longjmp = type { ptr, [1 x %struct.__jmp_buf_tag], i32 }
%struct.__jmp_buf_tag = type { [8 x i64], i32, %struct.__sigset_t }
%struct.__sigset_t = type { [16 x i64] }

; Function Attrs: nounwind uwtable
define hidden i32 @luaD_rawrunprotected(ptr noundef %0, ptr noundef %1, ptr noundef %2) #0 {
  %4 = alloca ptr, align 8
  %5 = alloca ptr, align 8
  %6 = alloca ptr, align 8
  %7 = alloca i32, align 4
  %8 = alloca %struct.lua_longjmp, align 8
  store ptr %0, ptr %4, align 8, !tbaa !4
  store ptr %1, ptr %5, align 8, !tbaa !47
  store ptr %2, ptr %6, align 8, !tbaa !47
  call void @llvm.lifetime.start.p0(i64 4, ptr %7) #11
  %9 = load ptr, ptr %4, align 8, !tbaa !4
  %10 = getelementptr inbounds nuw %struct.lua_State, ptr %9, i32 0, i32 19
  %11 = load i32, ptr %10, align 8, !tbaa !48
  store i32 %11, ptr %7, align 4, !tbaa !9
  call void @llvm.lifetime.start.p0(i64 216, ptr %8) #11
  %12 = getelementptr inbounds nuw %struct.lua_longjmp, ptr %8, i32 0, i32 2
  store volatile i32 0, ptr %12, align 8, !tbaa !41
  %13 = load ptr, ptr %4, align 8, !tbaa !4
  %14 = getelementptr inbounds nuw %struct.lua_State, ptr %13, i32 0, i32 15
  %15 = load ptr, ptr %14, align 8, !tbaa !40
  %16 = getelementptr inbounds nuw %struct.lua_longjmp, ptr %8, i32 0, i32 0
  store ptr %15, ptr %16, align 8, !tbaa !49
  %17 = load ptr, ptr %4, align 8, !tbaa !4
  %18 = getelementptr inbounds nuw %struct.lua_State, ptr %17, i32 0, i32 15
  store ptr %8, ptr %18, align 8, !tbaa !40
  %19 = getelementptr inbounds nuw %struct.lua_longjmp, ptr %8, i32 0, i32 1
  %20 = getelementptr inbounds [1 x %struct.__jmp_buf_tag], ptr %19, i64 0, i64 0
  %21 = call i32 @_setjmp(ptr noundef %20) #14
  %22 = icmp eq i32 %21, 0
  br i1 %22, label %23, label %27

23:                                               ; preds = %3
  %24 = load ptr, ptr %5, align 8, !tbaa !47
  %25 = load ptr, ptr %4, align 8, !tbaa !4
  %26 = load ptr, ptr %6, align 8, !tbaa !47
  call void %24(ptr noundef %25, ptr noundef %26)
  br label %27

27:                                               ; preds = %23, %3
  %28 = getelementptr inbounds nuw %struct.lua_longjmp, ptr %8, i32 0, i32 0
  %29 = load ptr, ptr %28, align 8, !tbaa !49
  %30 = load ptr, ptr %4, align 8, !tbaa !4
  %31 = getelementptr inbounds nuw %struct.lua_State, ptr %30, i32 0, i32 15
  store ptr %29, ptr %31, align 8, !tbaa !40
  %32 = load i32, ptr %7, align 4, !tbaa !9
  %33 = load ptr, ptr %4, align 8, !tbaa !4
  %34 = getelementptr inbounds nuw %struct.lua_State, ptr %33, i32 0, i32 19
  store i32 %32, ptr %34, align 8, !tbaa !48
  %35 = getelementptr inbounds nuw %struct.lua_longjmp, ptr %8, i32 0, i32 2
  %36 = load volatile i32, ptr %35, align 8, !tbaa !41
  call void @llvm.lifetime.end.p0(i64 216, ptr %8) #11
  call void @llvm.lifetime.end.p0(i64 4, ptr %7) #11
  ret i32 %36
}