; Function Attrs: nounwind uwtable
define hidden i32 @luaD_rawrunprotected(ptr noundef %0, ptr noundef readonly captures(none) %1, ptr noundef %2) local_unnamed_addr #0 {
  %4 = alloca %struct.lua_longjmp, align 8
  %5 = getelementptr inbounds nuw i8, ptr %0, i64 176
  %6 = load i32, ptr %5, align 8, !tbaa !38
  call void @llvm.lifetime.start.p0(i64 216, ptr nonnull %4) #13
  %7 = getelementptr inbounds nuw i8, ptr %4, i64 208
  store volatile i32 0, ptr %7, align 8, !tbaa !33
  %8 = getelementptr inbounds nuw i8, ptr %0, i64 88
  %9 = load ptr, ptr %8, align 8, !tbaa !32
  store ptr %9, ptr %4, align 8, !tbaa !39
  store ptr %4, ptr %8, align 8, !tbaa !32
  %10 = getelementptr inbounds nuw i8, ptr %4, i64 8
  %11 = call i32 @_setjmp(ptr noundef nonnull %10) #16
  %12 = icmp eq i32 %11, 0
  br i1 %12, label %13, label %14

13:                                               ; preds = %3
  call void %1(ptr noundef nonnull %0, ptr noundef %2) #13
  br label %14

14:                                               ; preds = %13, %3
  %15 = load ptr, ptr %4, align 8, !tbaa !39
  store ptr %15, ptr %8, align 8, !tbaa !32
  store i32 %6, ptr %5, align 8, !tbaa !38
  %16 = load volatile i32, ptr %7, align 8, !tbaa !33
  call void @llvm.lifetime.end.p0(i64 216, ptr nonnull %4) #13
  ret i32 %16
}